target datalayout = "e-m:e-p270:32:32-p271:32:32-p272:64:64-i64:64-i128:128-f80:128-n8:16:32:64-S128"
target triple = "x86_64-pc-linux-gnu"

%struct.numeric = type { i32, i32, i32, i32, i32, ptr, ptr }
%struct.decimal = type { i32, i32, i32, i32, i32, [30 x i8] }

; Function Attrs: nounwind uwtable
define internal i32 @alloc_var(ptr noundef %0, i32 noundef %1) #0 {
  %3 = alloca i32, align 4
  %4 = alloca ptr, align 8
  %5 = alloca i32, align 4
  store ptr %0, ptr %4, align 8
  store i32 %1, ptr %5, align 4
  %6 = load ptr, ptr %4, align 8
  %7 = getelementptr inbounds nuw %struct.numeric, ptr %6, i32 0, i32 5
  %8 = load ptr, ptr %7, align 8
  call void @free(ptr noundef %8) #8
  %9 = load i32, ptr %5, align 4
  %10 = add i32 %9, 1
  %11 = sext i32 %10 to i64
  %12 = call ptr @pgtypes_alloc(i64 noundef %11)
  %13 = load ptr, ptr %4, align 8
  %14 = getelementptr inbounds nuw %struct.numeric, ptr %13, i32 0, i32 5
  store ptr %12, ptr %14, align 8
  %15 = load ptr, ptr %4, align 8
  %16 = getelementptr inbounds nuw %struct.numeric, ptr %15, i32 0, i32 5
  %17 = load ptr, ptr %16, align 8
  %18 = icmp eq ptr %17, null
  br i1 %18, label %19, label %20

19:                                               ; preds = %2
  store i32 -1, ptr %3, align 4
  br label %34

20:                                               ; preds = %2
  %21 = load ptr, ptr %4, align 8
  %22 = getelementptr inbounds nuw %struct.numeric, ptr %21, i32 0, i32 5
  %23 = load ptr, ptr %22, align 8
  %24 = getelementptr inbounds i8, ptr %23, i64 0
  store i8 0, ptr %24, align 1
  %25 = load ptr, ptr %4, align 8
  %26 = getelementptr inbounds nuw %struct.numeric, ptr %25, i32 0, i32 5
  %27 = load ptr, ptr %26, align 8
  %28 = getelementptr inbounds i8, ptr %27, i64 1
  %29 = load ptr, ptr %4, align 8
  %30 = getelementptr inbounds nuw %struct.numeric, ptr %29, i32 0, i32 6
  store ptr %28, ptr %30, align 8
  %31 = load i32, ptr %5, align 4
  %32 = load ptr, ptr %4, align 8
  %33 = getelementptr inbounds nuw %struct.numeric, ptr %32, i32 0, i32 0
  store i32 %31, ptr %33, align 8
  store i32 0, ptr %3, align 4
  br label %34

34:                                               ; preds = %20, %19
  %35 = load i32, ptr %3, align 4
  ret i32 %35
}

; Function Attrs: nounwind uwtable
define internal void @zero_var(ptr noundef %0) #0 {
  %2 = alloca ptr, align 8
  store ptr %0, ptr %2, align 8
  %3 = load ptr, ptr %2, align 8
  %4 = getelementptr inbounds nuw %struct.numeric, ptr %3, i32 0, i32 5
  %5 = load ptr, ptr %4, align 8
  call void @free(ptr noundef %5) #8
  %6 = load ptr, ptr %2, align 8
  %7 = getelementptr inbounds nuw %struct.numeric, ptr %6, i32 0, i32 5
  store ptr null, ptr %7, align 8
  %8 = load ptr, ptr %2, align 8
  %9 = getelementptr inbounds nuw %struct.numeric, ptr %8, i32 0, i32 6
  store ptr null, ptr %9, align 8
  %10 = load ptr, ptr %2, align 8
  %11 = getelementptr inbounds nuw %struct.numeric, ptr %10, i32 0, i32 0
  store i32 0, ptr %11, align 8
  %12 = load ptr, ptr %2, align 8
  %13 = getelementptr inbounds nuw %struct.numeric, ptr %12, i32 0, i32 1
  store i32 0, ptr %13, align 4
  %14 = load ptr, ptr %2, align 8
  %15 = getelementptr inbounds nuw %struct.numeric, ptr %14, i32 0, i32 4
  store i32 0, ptr %15, align 8
  ret void
}

; Function Attrs: nounwind uwtable
define i32 @PGTYPESnumeric_from_decimal(ptr noundef %0, ptr noundef %1) #0 {
  %3 = alloca i32, align 4
  %4 = alloca ptr, align 8
  %5 = alloca ptr, align 8
  %6 = alloca i32, align 4
  %7 = alloca i32, align 4
  store ptr %0, ptr %4, align 8
  store ptr %1, ptr %5, align 8
  call void @llvm.lifetime.start.p0(i64 4, ptr %6) #8
  %8 = load ptr, ptr %5, align 8
  call void @zero_var(ptr noundef %8)
  %9 = load ptr, ptr %4, align 8
  %10 = getelementptr inbounds nuw %struct.decimal, ptr %9, i32 0, i32 1
  %11 = load i32, ptr %10, align 4
  %12 = load ptr, ptr %5, align 8
  %13 = getelementptr inbounds nuw %struct.numeric, ptr %12, i32 0, i32 1
  store i32 %11, ptr %13, align 4
  %14 = load ptr, ptr %4, align 8
  %15 = getelementptr inbounds nuw %struct.decimal, ptr %14, i32 0, i32 2
  %16 = load i32, ptr %15, align 4
  %17 = load ptr, ptr %5, align 8
  %18 = getelementptr inbounds nuw %struct.numeric, ptr %17, i32 0, i32 2
  store i32 %16, ptr %18, align 8
  %19 = load ptr, ptr %4, align 8
  %20 = getelementptr inbounds nuw %struct.decimal, ptr %19, i32 0, i32 3
  %21 = load i32, ptr %20, align 4
  %22 = load ptr, ptr %5, align 8
  %23 = getelementptr inbounds nuw %struct.numeric, ptr %22, i32 0, i32 3
  store i32 %21, ptr %23, align 4
  %24 = load ptr, ptr %4, align 8
  %25 = getelementptr inbounds nuw %struct.decimal, ptr %24, i32 0, i32 4
  %26 = load i32, ptr %25, align 4
  %27 = load ptr, ptr %5, align 8
  %28 = getelementptr inbounds nuw %struct.numeric, ptr %27, i32 0, i32 4
  store i32 %26, ptr %28, align 8
  %29 = load ptr, ptr %5, align 8
  %30 = load ptr, ptr %4, align 8
  %31 = getelementptr inbounds nuw %struct.decimal, ptr %30, i32 0, i32 0
  %32 = load i32, ptr %31, align 4
  %33 = call i32 @alloc_var(ptr noundef %29, i32 noundef %32)
  %34 = icmp ne i32 %33, 0
  br i1 %34, label %35, label %36

35:                                               ; preds = %2
  store i32 -1, ptr %3, align 4
  store i32 1, ptr %7, align 4
  br label %60

36:                                               ; preds = %2
  store i32 0, ptr %6, align 4
  br label %37

37:                                               ; preds = %56, %36
  %38 = load i32, ptr %6, align 4
  %39 = load ptr, ptr %4, align 8
  %40 = getelementptr inbounds nuw %struct.decimal, ptr %39, i32 0, i32 0
  %41 = load i32, ptr %40, align 4
  %42 = icmp slt i32 %38, %41
  br i1 %42, label %43, label %59

43:                                               ; preds = %37
  %44 = load ptr, ptr %4, align 8
  %45 = getelementptr inbounds nuw %struct.decimal, ptr %44, i32 0, i32 5
  %46 = load i32, ptr %6, align 4
  %47 = sext i32 %46 to i64
  %48 = getelementptr inbounds [30 x i8], ptr %45, i64 0, i64 %47
  %49 = load i8, ptr %48, align 1
  %50 = load ptr, ptr %5, align 8
  %51 = getelementptr inbounds nuw %struct.numeric, ptr %50, i32 0, i32 6
  %52 = load ptr, ptr %51, align 8
  %53 = load i32, ptr %6, align 4
  %54 = sext i32 %53 to i64
  %55 = getelementptr inbounds i8, ptr %52, i64 %54
  store i8 %49, ptr %55, align 1
  br label %56

56:                                               ; preds = %43
  %57 = load i32, ptr %6, align 4
  %58 = add i32 %57, 1
  store i32 %58, ptr %6, align 4
  br label %37, !llvm.loop !44

59:                                               ; preds = %37
  store i32 0, ptr %3, align 4
  store i32 1, ptr %7, align 4
  br label %60

60:                                               ; preds = %59, %35
  call void @llvm.lifetime.end.p0(i64 4, ptr %6) #8
  %61 = load i32, ptr %3, align 4
  ret i32 %61
}