; Function Attrs: nounwind uwtable
define range(i32 -1, 1) i32 @PGTYPESnumeric_from_decimal(ptr noundef readonly captures(none) %0, ptr noundef captures(none) initializes((0, 20), (32, 40)) %1) local_unnamed_addr #0 {
  %3 = getelementptr inbounds nuw i8, ptr %1, i64 24
  %4 = load ptr, ptr %3, align 8
  tail call void @free(ptr noundef %4) #14
  store i32 0, ptr %1, align 8
  %5 = getelementptr inbounds nuw i8, ptr %1, i64 4
  store i32 0, ptr %5, align 4
  %6 = getelementptr inbounds nuw i8, ptr %1, i64 16
  store i32 0, ptr %6, align 8
  tail call void @llvm.memset.p0.i64(ptr noundef nonnull align 8 dereferenceable(16) %3, i8 0, i64 16, i1 false)
  %7 = getelementptr inbounds nuw i8, ptr %0, i64 4
  %8 = load i32, ptr %7, align 4
  store i32 %8, ptr %5, align 4
  %9 = getelementptr inbounds nuw i8, ptr %0, i64 8
  %10 = load i32, ptr %9, align 4
  %11 = getelementptr inbounds nuw i8, ptr %1, i64 8
  store i32 %10, ptr %11, align 8
  %12 = getelementptr inbounds nuw i8, ptr %0, i64 12
  %13 = load i32, ptr %12, align 4
  %14 = getelementptr inbounds nuw i8, ptr %1, i64 12
  store i32 %13, ptr %14, align 4
  %15 = getelementptr inbounds nuw i8, ptr %0, i64 16
  %16 = load i32, ptr %15, align 4
  store i32 %16, ptr %6, align 8
  %17 = load i32, ptr %0, align 4
  %18 = add i32 %17, 1
  %19 = sext i32 %18 to i64
  %20 = tail call ptr @pgtypes_alloc(i64 noundef %19) #14
  store ptr %20, ptr %3, align 8
  %21 = icmp eq ptr %20, null
  br i1 %21, label %alloc_var.exit.thread, label %alloc_var.exit

alloc_var.exit:                                   ; preds = %2
  store i8 0, ptr %20, align 1
  %22 = load ptr, ptr %3, align 8
  %23 = getelementptr inbounds nuw i8, ptr %22, i64 1
  %24 = getelementptr inbounds nuw i8, ptr %1, i64 32
  store ptr %23, ptr %24, align 8
  store i32 %17, ptr %1, align 8
  %25 = load i32, ptr %0, align 4
  %26 = icmp sgt i32 %25, 0
  br i1 %26, label %.lr.ph, label %alloc_var.exit.thread

.lr.ph:                                           ; preds = %alloc_var.exit
  %27 = getelementptr inbounds nuw i8, ptr %0, i64 20
  br label %28

28:                                               ; preds = %.lr.ph, %28
  %indvars.iv = phi i64 [ 0, %.lr.ph ], [ %indvars.iv.next, %28 ]
  %29 = getelementptr inbounds nuw [30 x i8], ptr %27, i64 0, i64 %indvars.iv
  %30 = load i8, ptr %29, align 1
  %31 = load ptr, ptr %24, align 8
  %32 = getelementptr inbounds nuw i8, ptr %31, i64 %indvars.iv
  store i8 %30, ptr %32, align 1
  %indvars.iv.next = add nuw nsw i64 %indvars.iv, 1
  %33 = load i32, ptr %0, align 4
  %34 = sext i32 %33 to i64
  %35 = icmp slt i64 %indvars.iv.next, %34
  br i1 %35, label %28, label %alloc_var.exit.thread, !llvm.loop !41

alloc_var.exit.thread:                            ; preds = %28, %alloc_var.exit, %2
  %.018 = phi i32 [ -1, %2 ], [ 0, %alloc_var.exit ], [ 0, %28 ]
  ret i32 %.018
}